; Function Attrs: nounwind uwtable
define hidden range(i32 -118, 1) i32 @mbedtls_sha3(i32 noundef %0, ptr noundef readonly captures(none) %1, i64 noundef %2, ptr noundef writeonly captures(none) %3, i64 noundef %4) local_unnamed_addr #2 {
  %6 = alloca %struct.mbedtls_sha3_context, align 8
  call void @llvm.lifetime.start.p0(i64 208, ptr nonnull %6) #12
  call void @llvm.memset.p0.i64(ptr noundef nonnull align 8 dereferenceable(208) %6, i8 0, i64 208, i1 false)
  %switch.tableidx = add i32 %0, -1
  %7 = icmp ult i32 %switch.tableidx, 4
  br i1 %7, label %switch.lookup, label %mbedtls_sha3_starts.exit

switch.lookup:                                    ; preds = %5
  %8 = shl nuw nsw i32 %switch.tableidx, 4
  %switch.shiftamt = zext nneg i32 %8 to i64
  %switch.downshift = lshr i64 18014604670009372, %switch.shiftamt
  %switch.masked = trunc i64 %switch.downshift to i16
  %9 = shl nuw nsw i32 %switch.tableidx, 4
  %switch.shiftamt10 = zext nneg i32 %9 to i64
  %switch.downshift11 = lshr i64 20266645008679056, %switch.shiftamt10
  %switch.masked12 = trunc i64 %switch.downshift11 to i16
  %10 = getelementptr inbounds nuw i8, ptr %6, i64 204
  store i16 %switch.masked, ptr %10, align 4, !tbaa !11
  %11 = getelementptr inbounds nuw i8, ptr %6, i64 206
  store i16 %switch.masked12, ptr %11, align 2, !tbaa !13
  call void @llvm.memset.p0.i64(ptr noundef nonnull align 8 dereferenceable(204) %6, i8 0, i64 204, i1 false)
  %12 = call i32 @mbedtls_sha3_update(ptr noundef nonnull %6, ptr noundef %1, i64 noundef %2)
  %13 = call i32 @mbedtls_sha3_finish(ptr noundef nonnull %6, ptr noundef %3, i64 noundef %4)
  br label %mbedtls_sha3_starts.exit

mbedtls_sha3_starts.exit:                         ; preds = %5, %switch.lookup
  %.0 = phi i32 [ %13, %switch.lookup ], [ -118, %5 ]
  call void @mbedtls_platform_zeroize(ptr noundef nonnull %6, i64 noundef 208) #12
  call void @llvm.lifetime.end.p0(i64 208, ptr nonnull %6) #12
  ret i32 %.0
}